target datalayout = "e-m:e-p270:32:32-p271:32:32-p272:64:64-i64:64-i128:128-f80:128-n8:16:32:64-S128"
target triple = "x86_64-pc-linux-gnu"

; Function Attrs: alwaysinline nounwind willreturn memory(none) uwtable
define internal zeroext i16 @av_bswap16(i16 noundef zeroext %0) #4 {
  %2 = alloca i16, align 2
  store i16 %0, ptr %2, align 2, !tbaa !44
  %3 = load i16, ptr %2, align 2, !tbaa !44
  %4 = zext i16 %3 to i32
  %5 = ashr i32 %4, 8
  %6 = load i16, ptr %2, align 2, !tbaa !44
  %7 = zext i16 %6 to i32
  %8 = shl i32 %7, 8
  %9 = or i32 %5, %8
  %10 = trunc i32 %9 to i16
  store i16 %10, ptr %2, align 2, !tbaa !44
  %11 = load i16, ptr %2, align 2, !tbaa !44
  ret i16 %11
}

; Function Attrs: alwaysinline nounwind uwtable
define internal void @rgb64ToY_c_template(ptr noundef %0, ptr noundef %1, i32 noundef %2, i32 noundef %3, ptr noundef %4, i32 noundef %5) #3 {
  %7 = alloca ptr, align 8
  %8 = alloca ptr, align 8
  %9 = alloca i32, align 4
  %10 = alloca i32, align 4
  %11 = alloca ptr, align 8
  %12 = alloca i32, align 4
  %13 = alloca i32, align 4
  %14 = alloca i32, align 4
  %15 = alloca i32, align 4
  %16 = alloca i32, align 4
  %17 = alloca i32, align 4
  %18 = alloca i32, align 4
  %19 = alloca i32, align 4
  store ptr %0, ptr %7, align 8, !tbaa !43
  store ptr %1, ptr %8, align 8, !tbaa !43
  store i32 %2, ptr %9, align 4, !tbaa !30
  store i32 %3, ptr %10, align 4, !tbaa !30
  store ptr %4, ptr %11, align 8, !tbaa !35
  store i32 %5, ptr %12, align 4, !tbaa !30
  call void @llvm.lifetime.start.p0(i64 4, ptr %13) #9
  %20 = load ptr, ptr %11, align 8, !tbaa !35
  %21 = getelementptr inbounds i32, ptr %20, i64 0
  %22 = load i32, ptr %21, align 4, !tbaa !30
  store i32 %22, ptr %13, align 4, !tbaa !30
  call void @llvm.lifetime.start.p0(i64 4, ptr %14) #9
  %23 = load ptr, ptr %11, align 8, !tbaa !35
  %24 = getelementptr inbounds i32, ptr %23, i64 1
  %25 = load i32, ptr %24, align 4, !tbaa !30
  store i32 %25, ptr %14, align 4, !tbaa !30
  call void @llvm.lifetime.start.p0(i64 4, ptr %15) #9
  %26 = load ptr, ptr %11, align 8, !tbaa !35
  %27 = getelementptr inbounds i32, ptr %26, i64 2
  %28 = load i32, ptr %27, align 4, !tbaa !30
  store i32 %28, ptr %15, align 4, !tbaa !30
  call void @llvm.lifetime.start.p0(i64 4, ptr %16) #9
  store i32 0, ptr %16, align 4, !tbaa !30
  br label %29

29:                                               ; preds = %153, %6
  %30 = load i32, ptr %16, align 4, !tbaa !30
  %31 = load i32, ptr %9, align 4, !tbaa !30
  %32 = icmp slt i32 %30, %31
  br i1 %32, label %33, label %156

33:                                               ; preds = %29
  call void @llvm.lifetime.start.p0(i64 4, ptr %17) #9
  %34 = load i32, ptr %12, align 4, !tbaa !30
  %35 = icmp ne i32 %34, 0
  br i1 %35, label %36, label %46

36:                                               ; preds = %33
  %37 = load ptr, ptr %8, align 8, !tbaa !43
  %38 = load i32, ptr %16, align 4, !tbaa !30
  %39 = mul nsw i32 %38, 4
  %40 = add nsw i32 %39, 0
  %41 = sext i32 %40 to i64
  %42 = getelementptr inbounds i16, ptr %37, i64 %41
  %43 = load i16, ptr %42, align 1, !tbaa !36
  %44 = call zeroext i16 @av_bswap16(i16 noundef zeroext %43) #10
  %45 = zext i16 %44 to i32
  br label %55

46:                                               ; preds = %33
  %47 = load ptr, ptr %8, align 8, !tbaa !43
  %48 = load i32, ptr %16, align 4, !tbaa !30
  %49 = mul nsw i32 %48, 4
  %50 = add nsw i32 %49, 0
  %51 = sext i32 %50 to i64
  %52 = getelementptr inbounds i16, ptr %47, i64 %51
  %53 = load i16, ptr %52, align 1, !tbaa !36
  %54 = zext i16 %53 to i32
  br label %55

55:                                               ; preds = %46, %36
  %56 = phi i32 [ %45, %36 ], [ %54, %46 ]
  store i32 %56, ptr %17, align 4, !tbaa !30
  call void @llvm.lifetime.start.p0(i64 4, ptr %18) #9
  %57 = load i32, ptr %12, align 4, !tbaa !30
  %58 = icmp ne i32 %57, 0
  br i1 %58, label %59, label %69

59:                                               ; preds = %55
  %60 = load ptr, ptr %8, align 8, !tbaa !43
  %61 = load i32, ptr %16, align 4, !tbaa !30
  %62 = mul nsw i32 %61, 4
  %63 = add nsw i32 %62, 1
  %64 = sext i32 %63 to i64
  %65 = getelementptr inbounds i16, ptr %60, i64 %64
  %66 = load i16, ptr %65, align 1, !tbaa !36
  %67 = call zeroext i16 @av_bswap16(i16 noundef zeroext %66) #10
  %68 = zext i16 %67 to i32
  br label %78

69:                                               ; preds = %55
  %70 = load ptr, ptr %8, align 8, !tbaa !43
  %71 = load i32, ptr %16, align 4, !tbaa !30
  %72 = mul nsw i32 %71, 4
  %73 = add nsw i32 %72, 1
  %74 = sext i32 %73 to i64
  %75 = getelementptr inbounds i16, ptr %70, i64 %74
  %76 = load i16, ptr %75, align 1, !tbaa !36
  %77 = zext i16 %76 to i32
  br label %78

78:                                               ; preds = %69, %59
  %79 = phi i32 [ %68, %59 ], [ %77, %69 ]
  store i32 %79, ptr %18, align 4, !tbaa !30
  call void @llvm.lifetime.start.p0(i64 4, ptr %19) #9
  %80 = load i32, ptr %12, align 4, !tbaa !30
  %81 = icmp ne i32 %80, 0
  br i1 %81, label %82, label %92

82:                                               ; preds = %78
  %83 = load ptr, ptr %8, align 8, !tbaa !43
  %84 = load i32, ptr %16, align 4, !tbaa !30
  %85 = mul nsw i32 %84, 4
  %86 = add nsw i32 %85, 2
  %87 = sext i32 %86 to i64
  %88 = getelementptr inbounds i16, ptr %83, i64 %87
  %89 = load i16, ptr %88, align 1, !tbaa !36
  %90 = call zeroext i16 @av_bswap16(i16 noundef zeroext %89) #10
  %91 = zext i16 %90 to i32
  br label %101

92:                                               ; preds = %78
  %93 = load ptr, ptr %8, align 8, !tbaa !43
  %94 = load i32, ptr %16, align 4, !tbaa !30
  %95 = mul nsw i32 %94, 4
  %96 = add nsw i32 %95, 2
  %97 = sext i32 %96 to i64
  %98 = getelementptr inbounds i16, ptr %93, i64 %97
  %99 = load i16, ptr %98, align 1, !tbaa !36
  %100 = zext i16 %99 to i32
  br label %101

101:                                              ; preds = %92, %82
  %102 = phi i32 [ %91, %82 ], [ %100, %92 ]
  store i32 %102, ptr %19, align 4, !tbaa !30
  %103 = load i32, ptr %13, align 4, !tbaa !30
  %104 = load i32, ptr %10, align 4, !tbaa !30
  %105 = icmp eq i32 %104, 57
  br i1 %105, label %115, label %106

106:                                              ; preds = %101
  %107 = load i32, ptr %10, align 4, !tbaa !30
  %108 = icmp eq i32 %107, 58
  br i1 %108, label %115, label %109

109:                                              ; preds = %106
  %110 = load i32, ptr %10, align 4, !tbaa !30
  %111 = icmp eq i32 %110, 106
  br i1 %111, label %115, label %112

112:                                              ; preds = %109
  %113 = load i32, ptr %10, align 4, !tbaa !30
  %114 = icmp eq i32 %113, 107
  br i1 %114, label %115, label %117

115:                                              ; preds = %112, %109, %106, %101
  %116 = load i32, ptr %19, align 4, !tbaa !30
  br label %119

117:                                              ; preds = %112
  %118 = load i32, ptr %17, align 4, !tbaa !30
  br label %119

119:                                              ; preds = %117, %115
  %120 = phi i32 [ %116, %115 ], [ %118, %117 ]
  %121 = mul i32 %103, %120
  %122 = load i32, ptr %14, align 4, !tbaa !30
  %123 = load i32, ptr %18, align 4, !tbaa !30
  %124 = mul i32 %122, %123
  %125 = add i32 %121, %124
  %126 = load i32, ptr %15, align 4, !tbaa !30
  %127 = load i32, ptr %10, align 4, !tbaa !30
  %128 = icmp eq i32 %127, 57
  br i1 %128, label %138, label %129

129:                                              ; preds = %119
  %130 = load i32, ptr %10, align 4, !tbaa !30
  %131 = icmp eq i32 %130, 58
  br i1 %131, label %138, label %132

132:                                              ; preds = %129
  %133 = load i32, ptr %10, align 4, !tbaa !30
  %134 = icmp eq i32 %133, 106
  br i1 %134, label %138, label %135

135:                                              ; preds = %132
  %136 = load i32, ptr %10, align 4, !tbaa !30
  %137 = icmp eq i32 %136, 107
  br i1 %137, label %138, label %140

138:                                              ; preds = %135, %132, %129, %119
  %139 = load i32, ptr %17, align 4, !tbaa !30
  br label %142

140:                                              ; preds = %135
  %141 = load i32, ptr %19, align 4, !tbaa !30
  br label %142

142:                                              ; preds = %140, %138
  %143 = phi i32 [ %139, %138 ], [ %141, %140 ]
  %144 = mul i32 %126, %143
  %145 = add i32 %125, %144
  %146 = add i32 %145, 134234112
  %147 = lshr i32 %146, 15
  %148 = trunc i32 %147 to i16
  %149 = load ptr, ptr %7, align 8, !tbaa !43
  %150 = load i32, ptr %16, align 4, !tbaa !30
  %151 = sext i32 %150 to i64
  %152 = getelementptr inbounds i16, ptr %149, i64 %151
  store i16 %148, ptr %152, align 2, !tbaa !44
  call void @llvm.lifetime.end.p0(i64 4, ptr %19) #9
  call void @llvm.lifetime.end.p0(i64 4, ptr %18) #9
  call void @llvm.lifetime.end.p0(i64 4, ptr %17) #9
  br label %153

153:                                              ; preds = %142
  %154 = load i32, ptr %16, align 4, !tbaa !30
  %155 = add nsw i32 %154, 1
  store i32 %155, ptr %16, align 4, !tbaa !30
  br label %29, !llvm.loop !161

156:                                              ; preds = %29
  call void @llvm.lifetime.end.p0(i64 4, ptr %16) #9
  call void @llvm.lifetime.end.p0(i64 4, ptr %15) #9
  call void @llvm.lifetime.end.p0(i64 4, ptr %14) #9
  call void @llvm.lifetime.end.p0(i64 4, ptr %13) #9
  ret void
}

; Function Attrs: nounwind uwtable
define internal void @bgr64LEToY_c(ptr noundef %0, ptr noundef %1, ptr noundef %2, ptr noundef %3, i32 noundef %4, ptr noundef %5, ptr noundef %6) #2 {
  %8 = alloca ptr, align 8
  %9 = alloca ptr, align 8
  %10 = alloca ptr, align 8
  %11 = alloca ptr, align 8
  %12 = alloca i32, align 4
  %13 = alloca ptr, align 8
  %14 = alloca ptr, align 8
  %15 = alloca ptr, align 8
  %16 = alloca ptr, align 8
  store ptr %0, ptr %8, align 8, !tbaa !34
  store ptr %1, ptr %9, align 8, !tbaa !34
  store ptr %2, ptr %10, align 8, !tbaa !34
  store ptr %3, ptr %11, align 8, !tbaa !34
  store i32 %4, ptr %12, align 4, !tbaa !30
  store ptr %5, ptr %13, align 8, !tbaa !35
  store ptr %6, ptr %14, align 8, !tbaa !31
  call void @llvm.lifetime.start.p0(i64 8, ptr %15) #9
  %17 = load ptr, ptr %9, align 8, !tbaa !34
  store ptr %17, ptr %15, align 8, !tbaa !43
  call void @llvm.lifetime.start.p0(i64 8, ptr %16) #9
  %18 = load ptr, ptr %8, align 8, !tbaa !34
  store ptr %18, ptr %16, align 8, !tbaa !43
  %19 = load ptr, ptr %16, align 8, !tbaa !43
  %20 = load ptr, ptr %15, align 8, !tbaa !43
  %21 = load i32, ptr %12, align 4, !tbaa !30
  %22 = load ptr, ptr %13, align 8, !tbaa !35
  call void @rgb64ToY_c_template(ptr noundef %19, ptr noundef %20, i32 noundef %21, i32 noundef 107, ptr noundef %22, i32 noundef 0)
  call void @llvm.lifetime.end.p0(i64 8, ptr %16) #9
  call void @llvm.lifetime.end.p0(i64 8, ptr %15) #9
  ret void
}