; Function Attrs: nofree norecurse nosync nounwind memory(argmem: readwrite) uwtable
define internal void @bgr64LEToY_c(ptr noundef writeonly captures(none) %0, ptr noundef readonly captures(none) %1, ptr readnone captures(none) %2, ptr readnone captures(none) %3, i32 noundef %4, ptr noundef readonly captures(none) %5, ptr readnone captures(none) %6) #1 {
  %8 = load i32, ptr %5, align 4, !tbaa !42
  %9 = getelementptr inbounds nuw i8, ptr %5, i64 4
  %10 = load i32, ptr %9, align 4, !tbaa !42
  %11 = getelementptr inbounds nuw i8, ptr %5, i64 8
  %12 = load i32, ptr %11, align 4, !tbaa !42
  %13 = icmp sgt i32 %4, 0
  br i1 %13, label %.lr.ph.preheader, label %rgb64ToY_c_template.exit

.lr.ph.preheader:                                 ; preds = %7
  %wide.trip.count = zext nneg i32 %4 to i64
  br label %.lr.ph

.lr.ph:                                           ; preds = %.lr.ph.preheader, %.lr.ph
  %indvars.iv = phi i64 [ 0, %.lr.ph.preheader ], [ %indvars.iv.next, %.lr.ph ]
  %.idx = shl nsw i64 %indvars.iv, 3
  %14 = getelementptr inbounds nuw i8, ptr %1, i64 %.idx
  %15 = load i16, ptr %14, align 1, !tbaa !34
  %16 = zext i16 %15 to i32
  %17 = getelementptr inbounds nuw i8, ptr %14, i64 2
  %18 = load i16, ptr %17, align 1, !tbaa !34
  %19 = zext i16 %18 to i32
  %20 = getelementptr inbounds nuw i8, ptr %14, i64 4
  %21 = load i16, ptr %20, align 1, !tbaa !34
  %22 = zext i16 %21 to i32
  %23 = mul i32 %8, %22
  %24 = mul i32 %10, %19
  %25 = mul i32 %12, %16
  %26 = add i32 %25, 134234112
  %27 = add i32 %26, %24
  %28 = add i32 %27, %23
  %29 = lshr i32 %28, 15
  %30 = trunc i32 %29 to i16
  %31 = getelementptr inbounds nuw i16, ptr %0, i64 %indvars.iv
  store i16 %30, ptr %31, align 2, !tbaa !43
  %indvars.iv.next = add nuw nsw i64 %indvars.iv, 1
  %exitcond.not = icmp eq i64 %indvars.iv.next, %wide.trip.count
  br i1 %exitcond.not, label %rgb64ToY_c_template.exit, label %.lr.ph, !llvm.loop !126

rgb64ToY_c_template.exit:                         ; preds = %.lr.ph, %7
  ret void
}